target datalayout = "e-m:e-p270:32:32-p271:32:32-p272:64:64-i64:64-i128:128-f80:128-n8:16:32:64-S128"
target triple = "x86_64-pc-linux-gnu"

%class.ctx_propagate_assertions = type { %"class.ctx_simplify_tactic::simplifier", ptr, %class.obj_map, %class.ref_vector, %class.svector }
%"class.ctx_simplify_tactic::simplifier" = type { ptr, ptr }
%class.obj_map = type { %class.core_hashtable }
%class.core_hashtable = type <{ ptr, i32, i32, i32, [4 x i8] }>
%class.ref_vector = type { %class.ref_vector_core }
%class.ref_vector_core = type { %class.ref_manager_wrapper, %class.ptr_vector }
%class.ref_manager_wrapper = type { ptr }
%class.ptr_vector = type { %class.vector }
%class.vector = type { ptr }
%class.svector = type { %class.vector.0 }
%class.vector.0 = type { ptr }

; Function Attrs: mustprogress nounwind uwtable
define linkonce_odr hidden noundef i32 @_ZNK6vectorIP4exprLb0EjE4sizeEv(ptr noundef nonnull align 8 dereferenceable(8) %0) #6 comdat align 2 {
  %2 = alloca i32, align 4
  %3 = alloca ptr, align 8
  store ptr %0, ptr %3, align 8, !tbaa !298
  %4 = load ptr, ptr %3, align 8
  %5 = getelementptr inbounds nuw %class.vector, ptr %4, i32 0, i32 0
  %6 = load ptr, ptr %5, align 8, !tbaa !300
  %7 = icmp eq ptr %6, null
  br i1 %7, label %8, label %9

8:                                                ; preds = %1
  store i32 0, ptr %2, align 4
  br label %14

9:                                                ; preds = %1
  %10 = getelementptr inbounds nuw %class.vector, ptr %4, i32 0, i32 0
  %11 = load ptr, ptr %10, align 8, !tbaa !300
  %12 = getelementptr inbounds i32, ptr %11, i64 -1
  %13 = load i32, ptr %12, align 4, !tbaa !48
  store i32 %13, ptr %2, align 4
  br label %14

14:                                               ; preds = %9, %8
  %15 = load i32, ptr %2, align 4
  ret i32 %15
}

; Function Attrs: mustprogress uwtable
define linkonce_odr hidden noundef nonnull align 8 dereferenceable(8) ptr @_ZN6vectorIjLb0EjE9push_backEOj(ptr noundef nonnull align 8 dereferenceable(8) %0, ptr noundef nonnull align 4 dereferenceable(4) %1) #4 comdat align 2 {
  %3 = alloca ptr, align 8
  %4 = alloca ptr, align 8
  store ptr %0, ptr %3, align 8, !tbaa !125
  store ptr %1, ptr %4, align 8, !tbaa !127
  %5 = load ptr, ptr %3, align 8
  %6 = getelementptr inbounds nuw %class.vector.0, ptr %5, i32 0, i32 0
  %7 = load ptr, ptr %6, align 8, !tbaa !128
  %8 = icmp eq ptr %7, null
  br i1 %8, label %19, label %9

9:                                                ; preds = %2
  %10 = getelementptr inbounds nuw %class.vector.0, ptr %5, i32 0, i32 0
  %11 = load ptr, ptr %10, align 8, !tbaa !128
  %12 = getelementptr inbounds i32, ptr %11, i64 -1
  %13 = load i32, ptr %12, align 4, !tbaa !48
  %14 = getelementptr inbounds nuw %class.vector.0, ptr %5, i32 0, i32 0
  %15 = load ptr, ptr %14, align 8, !tbaa !128
  %16 = getelementptr inbounds i32, ptr %15, i64 -2
  %17 = load i32, ptr %16, align 4, !tbaa !48
  %18 = icmp eq i32 %13, %17
  br i1 %18, label %19, label %20

19:                                               ; preds = %9, %2
  call void @_ZN6vectorIjLb0EjE13expand_vectorEv(ptr noundef nonnull align 8 dereferenceable(8) %5)
  br label %20

20:                                               ; preds = %19, %9
  %21 = getelementptr inbounds nuw %class.vector.0, ptr %5, i32 0, i32 0
  %22 = load ptr, ptr %21, align 8, !tbaa !128
  %23 = getelementptr inbounds nuw %class.vector.0, ptr %5, i32 0, i32 0
  %24 = load ptr, ptr %23, align 8, !tbaa !128
  %25 = getelementptr inbounds i32, ptr %24, i64 -1
  %26 = load i32, ptr %25, align 4, !tbaa !48
  %27 = zext i32 %26 to i64
  %28 = getelementptr inbounds nuw i32, ptr %22, i64 %27
  %29 = load ptr, ptr %4, align 8, !tbaa !127
  %30 = load i32, ptr %29, align 4, !tbaa !48
  store i32 %30, ptr %28, align 4, !tbaa !48
  %31 = getelementptr inbounds nuw %class.vector.0, ptr %5, i32 0, i32 0
  %32 = load ptr, ptr %31, align 8, !tbaa !128
  %33 = getelementptr inbounds i32, ptr %32, i64 -1
  %34 = load i32, ptr %33, align 4, !tbaa !48
  %35 = add i32 %34, 1
  store i32 %35, ptr %33, align 4, !tbaa !48
  ret ptr %5
}

; Function Attrs: mustprogress nounwind uwtable
define linkonce_odr hidden noundef i32 @_ZNK15ref_vector_coreI4expr19ref_manager_wrapperIS0_11ast_managerEE4sizeEv(ptr noundef nonnull align 8 dereferenceable(16) %0) #6 comdat align 2 {
  %2 = alloca ptr, align 8
  store ptr %0, ptr %2, align 8, !tbaa !115
  %3 = load ptr, ptr %2, align 8
  %4 = getelementptr inbounds nuw %class.ref_vector_core, ptr %3, i32 0, i32 1
  %5 = call noundef i32 @_ZNK6vectorIP4exprLb0EjE4sizeEv(ptr noundef nonnull align 8 dereferenceable(8) %4)
  ret i32 %5
}

; Function Attrs: mustprogress uwtable
define hidden void @_ZN24ctx_propagate_assertions4pushEv(ptr noundef nonnull align 8 dereferenceable(72) %0) #4 align 2 {
  %2 = alloca ptr, align 8
  %3 = alloca i32, align 4
  store ptr %0, ptr %2, align 8, !tbaa !3
  %4 = load ptr, ptr %2, align 8
  %5 = getelementptr inbounds nuw %class.ctx_propagate_assertions, ptr %4, i32 0, i32 4
  call void @llvm.lifetime.start.p0(i64 4, ptr %3) #3
  %6 = getelementptr inbounds nuw %class.ctx_propagate_assertions, ptr %4, i32 0, i32 3
  %7 = call noundef i32 @_ZNK15ref_vector_coreI4expr19ref_manager_wrapperIS0_11ast_managerEE4sizeEv(ptr noundef nonnull align 8 dereferenceable(16) %6)
  store i32 %7, ptr %3, align 4, !tbaa !48
  %8 = call noundef nonnull align 8 dereferenceable(8) ptr @_ZN6vectorIjLb0EjE9push_backEOj(ptr noundef nonnull align 8 dereferenceable(8) %5, ptr noundef nonnull align 4 dereferenceable(4) %3)
  call void @llvm.lifetime.end.p0(i64 4, ptr %3) #3
  ret void
}